target datalayout = "e-m:e-p270:32:32-p271:32:32-p272:64:64-i64:64-i128:128-f80:128-n8:16:32:64-S128"
target triple = "x86_64-unknown-linux-gnu"

%struct.redisServer = type { i32, i64, ptr, ptr, ptr, i32, i32, i32, i32, i32, ptr, ptr, ptr, ptr, ptr, ptr, i32, i32, i64, i32, i32, i32, i32, ptr, i32, i32, [41 x i8], i32, i64, i32, i32, i32, ptr, ptr, i32, i32, i64, ptr, ptr, ptr, ptr, [2 x i32], i32, i32, i32, i32, i32, [16 x ptr], i32, ptr, ptr, i32, [8 x %struct.connListener], i32, %struct.connListener, ptr, ptr, ptr, ptr, ptr, ptr, ptr, ptr, ptr, ptr, i32, ptr, i32, ptr, [3 x %struct.pause_event], [256 x i8], ptr, i64, i32, i32, i32, i32, i64, i32, i32, i32, i32, i32, i64, i64, i64, i64, i64, i64, i64, i64, i64, double, i64, i64, i64, i64, i64, i64, i64, i64, i64, i64, i64, i64, i64, i64, i64, i64, i64, i64, i64, i64, double, i64, i64, i64, i64, i64, ptr, i64, i64, i64, %struct.malloc_stats, i64, i64, i64, i64, i64, i64, i64, i64, i64, i64, i64, i64, double, [4 x i64], i64, i64, i64, i64, i64, i64, i64, i64, i64, i64, [7 x %struct.anon], i64, i64, i64, i64, i64, i64, [4 x %struct.durationStats], i32, i32, i32, i32, i32, i32, i32, i32, i32, i32, i64, i32, i32, i32, i32, i64, i64, i32, i32, i32, i32, i32, ptr, [3 x %struct.clientBufferLimitsConfig], i32, i32, ptr, i32, i32, i32, i32, ptr, ptr, i32, i32, i64, i64, i64, i64, i64, i32, i32, ptr, i32, i32, i64, i64, i64, i64, i64, i32, i32, i64, i32, i32, i32, i32, i32, i32, i32, i32, ptr, i32, i64, i64, i64, i64, ptr, i32, ptr, i32, i32, i32, i64, i64, i64, i64, i32, i32, i32, i32, i32, i32, ptr, i32, i32, ptr, i32, i32, i32, [2 x i32], i32, %struct.redisOpArray, i32, ptr, i32, ptr, i32, i32, i32, i32, i32, i32, i32, [41 x i8], [41 x i8], i64, i64, i64, i64, i32, i32, ptr, i64, i64, i64, i32, i32, i32, i32, i32, i32, i32, i64, ptr, ptr, ptr, ptr, i32, i32, ptr, ptr, i32, i32, i64, i64, i64, ptr, i32, ptr, i64, i32, i32, i32, i64, i32, i32, i32, i32, ptr, i32, i32, [41 x i8], i64, i32, ptr, i32, i32, i64, i64, i32, i32, i32, i32, i32, i64, [3 x i32], i32, i32, i32, [9 x i32], ptr, ptr, i32, i64, ptr, ptr, i32, i32, i32, i32, i64, i64, i64, i64, i64, i64, i64, i64, i64, i64, i32, i32, i64, i64, i32, i64, i64, i64, i64, i64, ptr, ptr, i32, ptr, i32, i32, i32, i64, i64, ptr, ptr, i32, i32, i32, i32, i32, ptr, ptr, ptr, i32, i32, i32, i32, i32, i32, i32, i64, i32, i64, i32, i32, i32, i32, i32, i32, i32, i64, ptr, ptr, i64, ptr, i32, %struct.aclInfo, i32, i64, i32, i32, i32, %struct.redisTLSContextConfig, ptr, ptr, ptr, ptr, ptr, i64, i32, ptr, i32, i32, i32, i64, i32, ptr }
%struct.connListener = type { [16 x i32], i32, ptr, i32, i32, ptr, ptr }
%struct.pause_event = type { i32, i64 }
%struct.malloc_stats = type { i64, i64, i64, i64, i64 }
%struct.anon = type { i64, i64, [16 x i64], i32 }
%struct.durationStats = type { i64, i64, i64 }
%struct.clientBufferLimitsConfig = type { i64, i64, i64 }
%struct.redisOpArray = type { ptr, i32, i32 }
%struct.aclInfo = type { i64, i64, i64, i64 }
%struct.redisTLSContextConfig = type { ptr, ptr, ptr, ptr, ptr, ptr, ptr, ptr, ptr, ptr, ptr, ptr, i32, i32, i32, i32 }
%struct.connection = type { ptr, i32, i32, i32, i16, i16, i16, ptr, ptr, ptr, ptr }
%struct.ConnectionType = type { ptr, ptr, ptr, ptr, ptr, ptr, ptr, ptr, ptr, ptr, ptr, ptr, ptr, ptr, ptr, ptr, ptr, ptr, ptr, ptr, ptr, ptr, ptr, ptr, ptr, ptr, ptr, ptr }

@server = external global %struct.redisServer, align 8
@.str.134 = private unnamed_addr constant [44 x i8] c"Failed to read response from the server: %s\00", align 1

; Function Attrs: nounwind uwtable
define internal ptr @connGetLastError(ptr noundef %conn) #0 {
entry:
  %conn.addr = alloca ptr, align 8
  store ptr %conn, ptr %conn.addr, align 8
  %0 = load ptr, ptr %conn.addr, align 8
  %type = getelementptr inbounds %struct.connection, ptr %0, i32 0, i32 0
  %1 = load ptr, ptr %type, align 8
  %get_last_error = getelementptr inbounds %struct.ConnectionType, ptr %1, i32 0, i32 21
  %2 = load ptr, ptr %get_last_error, align 8
  %3 = load ptr, ptr %conn.addr, align 8
  %call = call ptr %2(ptr noundef %3)
  ret ptr %call
}

; Function Attrs: nounwind uwtable
define internal i64 @connSyncReadLine(ptr noundef %conn, ptr noundef %ptr, i64 noundef %size, i64 noundef %timeout) #0 {
entry:
  %conn.addr = alloca ptr, align 8
  %ptr.addr = alloca ptr, align 8
  %size.addr = alloca i64, align 8
  %timeout.addr = alloca i64, align 8
  store ptr %conn, ptr %conn.addr, align 8
  store ptr %ptr, ptr %ptr.addr, align 8
  store i64 %size, ptr %size.addr, align 8
  store i64 %timeout, ptr %timeout.addr, align 8
  %0 = load ptr, ptr %conn.addr, align 8
  %type = getelementptr inbounds %struct.connection, ptr %0, i32 0, i32 0
  %1 = load ptr, ptr %type, align 8
  %sync_readline = getelementptr inbounds %struct.ConnectionType, ptr %1, i32 0, i32 24
  %2 = load ptr, ptr %sync_readline, align 8
  %3 = load ptr, ptr %conn.addr, align 8
  %4 = load ptr, ptr %ptr.addr, align 8
  %5 = load i64, ptr %size.addr, align 8
  %6 = load i64, ptr %timeout.addr, align 8
  %call = call i64 %2(ptr noundef %3, ptr noundef %4, i64 noundef %5, i64 noundef %6)
  ret i64 %call
}

; Function Attrs: nounwind uwtable
define dso_local ptr @receiveSynchronousResponse(ptr noundef %conn) #0 {
entry:
  %retval = alloca ptr, align 8
  %conn.addr = alloca ptr, align 8
  %buf = alloca [256 x i8], align 16
  store ptr %conn, ptr %conn.addr, align 8
  %0 = load ptr, ptr %conn.addr, align 8
  %arraydecay = getelementptr inbounds [256 x i8], ptr %buf, i64 0, i64 0
  %1 = load i32, ptr getelementptr inbounds (%struct.redisServer, ptr @server, i32 0, i32 288), align 8
  %mul = mul nsw i32 %1, 1000
  %conv = sext i32 %mul to i64
  %call = call i64 @connSyncReadLine(ptr noundef %0, ptr noundef %arraydecay, i64 noundef 256, i64 noundef %conv)
  %cmp = icmp eq i64 %call, -1
  br i1 %cmp, label %if.then, label %if.end6

if.then:                                          ; preds = %entry
  br label %do.body

do.body:                                          ; preds = %if.then
  %2 = load i32, ptr getelementptr inbounds (%struct.redisServer, ptr @server, i32 0, i32 156), align 8
  %cmp2 = icmp slt i32 3, %2
  br i1 %cmp2, label %if.then4, label %if.end

if.then4:                                         ; preds = %do.body
  br label %do.end

if.end:                                           ; preds = %do.body
  %3 = load ptr, ptr %conn.addr, align 8
  %call5 = call ptr @connGetLastError(ptr noundef %3)
  call void (i32, ptr, ...) @_serverLog(i32 noundef 3, ptr noundef @.str.134, ptr noundef %call5)
  br label %do.end

do.end:                                           ; preds = %if.end, %if.then4
  store ptr null, ptr %retval, align 8
  br label %return

if.end6:                                          ; preds = %entry
  %atomic-load = load atomic i64, ptr getelementptr inbounds (%struct.redisServer, ptr @server, i32 0, i32 349) seq_cst, align 8
  store i64 %atomic-load, ptr getelementptr inbounds (%struct.redisServer, ptr @server, i32 0, i32 296), align 8
  %arraydecay7 = getelementptr inbounds [256 x i8], ptr %buf, i64 0, i64 0
  %call8 = call ptr @sdsnew(ptr noundef %arraydecay7)
  store ptr %call8, ptr %retval, align 8
  br label %return

return:                                           ; preds = %if.end6, %do.end
  %4 = load ptr, ptr %retval, align 8
  ret ptr %4
}