; Function Attrs: nounwind uwtable
define dso_local ptr @receiveSynchronousResponse(ptr noundef %conn) local_unnamed_addr #0 {
entry:
  %buf = alloca [256 x i8], align 16
  %0 = load i32, ptr getelementptr inbounds (%struct.redisServer, ptr @server, i64 0, i32 288), align 8
  %mul = mul nsw i32 %0, 1000
  %conv = sext i32 %mul to i64
  %1 = load ptr, ptr %conn, align 8
  %sync_readline.i = getelementptr inbounds i8, ptr %1, i64 192
  %2 = load ptr, ptr %sync_readline.i, align 8
  %call.i = call i64 %2(ptr noundef nonnull %conn, ptr noundef nonnull %buf, i64 noundef 256, i64 noundef %conv) #21
  %cmp = icmp eq i64 %call.i, -1
  br i1 %cmp, label %do.body, label %if.end6

do.body:                                          ; preds = %entry
  %3 = load i32, ptr getelementptr inbounds (%struct.redisServer, ptr @server, i64 0, i32 156), align 8
  %cmp2 = icmp sgt i32 %3, 3
  br i1 %cmp2, label %return, label %if.end

if.end:                                           ; preds = %do.body
  %4 = load ptr, ptr %conn, align 8
  %get_last_error.i = getelementptr inbounds i8, ptr %4, i64 168
  %5 = load ptr, ptr %get_last_error.i, align 8
  %call.i2 = call ptr %5(ptr noundef nonnull %conn) #21
  call void (i32, ptr, ...) @_serverLog(i32 noundef 3, ptr noundef nonnull @.str.134, ptr noundef %call.i2) #21
  br label %return

if.end6:                                          ; preds = %entry
  %atomic-load = load atomic i64, ptr getelementptr inbounds (%struct.redisServer, ptr @server, i64 0, i32 349) seq_cst, align 8
  store i64 %atomic-load, ptr getelementptr inbounds (%struct.redisServer, ptr @server, i64 0, i32 296), align 8
  %call8 = call ptr @sdsnew(ptr noundef nonnull %buf) #21
  br label %return

return:                                           ; preds = %if.end, %do.body, %if.end6
  %retval.0 = phi ptr [ %call8, %if.end6 ], [ null, %do.body ], [ null, %if.end ]
  ret ptr %retval.0
}